target datalayout = "e-m:e-p270:32:32-p271:32:32-p272:64:64-i64:64-i128:128-f80:128-n8:16:32:64-S128"
target triple = "x86_64-pc-linux-gnu"

%struct.Color = type { i8, i8, i8, i8 }
%struct.Vector2 = type { float, float }

; Function Attrs: nounwind uwtable
define void @DrawSplineLinear(ptr noundef %0, i32 noundef %1, float noundef %2, i32 %3) #2 {
  %5 = alloca %struct.Color, align 1
  %6 = alloca ptr, align 8
  %7 = alloca i32, align 4
  %8 = alloca float, align 4
  %9 = alloca %struct.Vector2, align 4
  %10 = alloca float, align 4
  %11 = alloca float, align 4
  %12 = alloca i32, align 4
  %13 = alloca %struct.Vector2, align 4
  %14 = alloca %struct.Vector2, align 4
  %15 = alloca [4 x %struct.Vector2], align 16
  store i32 %3, ptr %5, align 1
  store ptr %0, ptr %6, align 8
  store i32 %1, ptr %7, align 4
  store float %2, ptr %8, align 4
  %16 = load i32, ptr %7, align 4
  %17 = icmp slt i32 %16, 2
  br i1 %17, label %18, label %19

18:                                               ; preds = %4
  br label %180

19:                                               ; preds = %4
  call void @llvm.lifetime.start.p0(i64 8, ptr %9) #8
  call void @llvm.memset.p0.i64(ptr align 4 %9, i8 0, i64 8, i1 false)
  call void @llvm.lifetime.start.p0(i64 4, ptr %10) #8
  store float 0.000000e+00, ptr %10, align 4
  call void @llvm.lifetime.start.p0(i64 4, ptr %11) #8
  store float 0.000000e+00, ptr %11, align 4
  call void @llvm.lifetime.start.p0(i64 4, ptr %12) #8
  store i32 0, ptr %12, align 4
  br label %20

20:                                               ; preds = %176, %19
  %21 = load i32, ptr %12, align 4
  %22 = load i32, ptr %7, align 4
  %23 = sub nsw i32 %22, 1
  %24 = icmp slt i32 %21, %23
  br i1 %24, label %26, label %25

25:                                               ; preds = %20
  call void @llvm.lifetime.end.p0(i64 4, ptr %12) #8
  br label %179

26:                                               ; preds = %20
  %27 = getelementptr inbounds nuw %struct.Vector2, ptr %13, i32 0, i32 0
  %28 = load ptr, ptr %6, align 8
  %29 = load i32, ptr %12, align 4
  %30 = add nsw i32 %29, 1
  %31 = sext i32 %30 to i64
  %32 = getelementptr inbounds %struct.Vector2, ptr %28, i64 %31
  %33 = getelementptr inbounds nuw %struct.Vector2, ptr %32, i32 0, i32 0
  %34 = load float, ptr %33, align 4
  %35 = load ptr, ptr %6, align 8
  %36 = load i32, ptr %12, align 4
  %37 = sext i32 %36 to i64
  %38 = getelementptr inbounds %struct.Vector2, ptr %35, i64 %37
  %39 = getelementptr inbounds nuw %struct.Vector2, ptr %38, i32 0, i32 0
  %40 = load float, ptr %39, align 4
  %41 = fsub float %34, %40
  store float %41, ptr %27, align 4
  %42 = getelementptr inbounds nuw %struct.Vector2, ptr %13, i32 0, i32 1
  %43 = load ptr, ptr %6, align 8
  %44 = load i32, ptr %12, align 4
  %45 = add nsw i32 %44, 1
  %46 = sext i32 %45 to i64
  %47 = getelementptr inbounds %struct.Vector2, ptr %43, i64 %46
  %48 = getelementptr inbounds nuw %struct.Vector2, ptr %47, i32 0, i32 1
  %49 = load float, ptr %48, align 4
  %50 = load ptr, ptr %6, align 8
  %51 = load i32, ptr %12, align 4
  %52 = sext i32 %51 to i64
  %53 = getelementptr inbounds %struct.Vector2, ptr %50, i64 %52
  %54 = getelementptr inbounds nuw %struct.Vector2, ptr %53, i32 0, i32 1
  %55 = load float, ptr %54, align 4
  %56 = fsub float %49, %55
  store float %56, ptr %42, align 4
  call void @llvm.memcpy.p0.p0.i64(ptr align 4 %9, ptr align 4 %13, i64 8, i1 false)
  %57 = getelementptr inbounds nuw %struct.Vector2, ptr %9, i32 0, i32 0
  %58 = load float, ptr %57, align 4
  %59 = getelementptr inbounds nuw %struct.Vector2, ptr %9, i32 0, i32 0
  %60 = load float, ptr %59, align 4
  %61 = getelementptr inbounds nuw %struct.Vector2, ptr %9, i32 0, i32 1
  %62 = load float, ptr %61, align 4
  %63 = getelementptr inbounds nuw %struct.Vector2, ptr %9, i32 0, i32 1
  %64 = load float, ptr %63, align 4
  %65 = fmul float %62, %64
  %66 = call float @llvm.fmuladd.f32(float %58, float %60, float %65)
  %67 = call float @sqrtf(float noundef %66) #8
  store float %67, ptr %10, align 4
  %68 = load float, ptr %10, align 4
  %69 = fcmp ogt float %68, 0.000000e+00
  br i1 %69, label %70, label %75

70:                                               ; preds = %26
  %71 = load float, ptr %8, align 4
  %72 = load float, ptr %10, align 4
  %73 = fmul float 2.000000e+00, %72
  %74 = fdiv float %71, %73
  store float %74, ptr %11, align 4
  br label %75

75:                                               ; preds = %70, %26
  call void @llvm.lifetime.start.p0(i64 8, ptr %14) #8
  %76 = getelementptr inbounds nuw %struct.Vector2, ptr %14, i32 0, i32 0
  %77 = load float, ptr %11, align 4
  %78 = fneg float %77
  %79 = getelementptr inbounds nuw %struct.Vector2, ptr %9, i32 0, i32 1
  %80 = load float, ptr %79, align 4
  %81 = fmul float %78, %80
  store float %81, ptr %76, align 4
  %82 = getelementptr inbounds nuw %struct.Vector2, ptr %14, i32 0, i32 1
  %83 = load float, ptr %11, align 4
  %84 = getelementptr inbounds nuw %struct.Vector2, ptr %9, i32 0, i32 0
  %85 = load float, ptr %84, align 4
  %86 = fmul float %83, %85
  store float %86, ptr %82, align 4
  call void @llvm.lifetime.start.p0(i64 32, ptr %15) #8
  %87 = getelementptr inbounds nuw %struct.Vector2, ptr %15, i32 0, i32 0
  %88 = load ptr, ptr %6, align 8
  %89 = load i32, ptr %12, align 4
  %90 = sext i32 %89 to i64
  %91 = getelementptr inbounds %struct.Vector2, ptr %88, i64 %90
  %92 = getelementptr inbounds nuw %struct.Vector2, ptr %91, i32 0, i32 0
  %93 = load float, ptr %92, align 4
  %94 = getelementptr inbounds nuw %struct.Vector2, ptr %14, i32 0, i32 0
  %95 = load float, ptr %94, align 4
  %96 = fsub float %93, %95
  store float %96, ptr %87, align 8
  %97 = getelementptr inbounds nuw %struct.Vector2, ptr %15, i32 0, i32 1
  %98 = load ptr, ptr %6, align 8
  %99 = load i32, ptr %12, align 4
  %100 = sext i32 %99 to i64
  %101 = getelementptr inbounds %struct.Vector2, ptr %98, i64 %100
  %102 = getelementptr inbounds nuw %struct.Vector2, ptr %101, i32 0, i32 1
  %103 = load float, ptr %102, align 4
  %104 = getelementptr inbounds nuw %struct.Vector2, ptr %14, i32 0, i32 1
  %105 = load float, ptr %104, align 4
  %106 = fsub float %103, %105
  store float %106, ptr %97, align 4
  %107 = getelementptr inbounds %struct.Vector2, ptr %15, i64 1
  %108 = getelementptr inbounds nuw %struct.Vector2, ptr %107, i32 0, i32 0
  %109 = load ptr, ptr %6, align 8
  %110 = load i32, ptr %12, align 4
  %111 = sext i32 %110 to i64
  %112 = getelementptr inbounds %struct.Vector2, ptr %109, i64 %111
  %113 = getelementptr inbounds nuw %struct.Vector2, ptr %112, i32 0, i32 0
  %114 = load float, ptr %113, align 4
  %115 = getelementptr inbounds nuw %struct.Vector2, ptr %14, i32 0, i32 0
  %116 = load float, ptr %115, align 4
  %117 = fadd float %114, %116
  store float %117, ptr %108, align 8
  %118 = getelementptr inbounds nuw %struct.Vector2, ptr %107, i32 0, i32 1
  %119 = load ptr, ptr %6, align 8
  %120 = load i32, ptr %12, align 4
  %121 = sext i32 %120 to i64
  %122 = getelementptr inbounds %struct.Vector2, ptr %119, i64 %121
  %123 = getelementptr inbounds nuw %struct.Vector2, ptr %122, i32 0, i32 1
  %124 = load float, ptr %123, align 4
  %125 = getelementptr inbounds nuw %struct.Vector2, ptr %14, i32 0, i32 1
  %126 = load float, ptr %125, align 4
  %127 = fadd float %124, %126
  store float %127, ptr %118, align 4
  %128 = getelementptr inbounds %struct.Vector2, ptr %15, i64 2
  %129 = getelementptr inbounds nuw %struct.Vector2, ptr %128, i32 0, i32 0
  %130 = load ptr, ptr %6, align 8
  %131 = load i32, ptr %12, align 4
  %132 = add nsw i32 %131, 1
  %133 = sext i32 %132 to i64
  %134 = getelementptr inbounds %struct.Vector2, ptr %130, i64 %133
  %135 = getelementptr inbounds nuw %struct.Vector2, ptr %134, i32 0, i32 0
  %136 = load float, ptr %135, align 4
  %137 = getelementptr inbounds nuw %struct.Vector2, ptr %14, i32 0, i32 0
  %138 = load float, ptr %137, align 4
  %139 = fsub float %136, %138
  store float %139, ptr %129, align 8
  %140 = getelementptr inbounds nuw %struct.Vector2, ptr %128, i32 0, i32 1
  %141 = load ptr, ptr %6, align 8
  %142 = load i32, ptr %12, align 4
  %143 = add nsw i32 %142, 1
  %144 = sext i32 %143 to i64
  %145 = getelementptr inbounds %struct.Vector2, ptr %141, i64 %144
  %146 = getelementptr inbounds nuw %struct.Vector2, ptr %145, i32 0, i32 1
  %147 = load float, ptr %146, align 4
  %148 = getelementptr inbounds nuw %struct.Vector2, ptr %14, i32 0, i32 1
  %149 = load float, ptr %148, align 4
  %150 = fsub float %147, %149
  store float %150, ptr %140, align 4
  %151 = getelementptr inbounds %struct.Vector2, ptr %15, i64 3
  %152 = getelementptr inbounds nuw %struct.Vector2, ptr %151, i32 0, i32 0
  %153 = load ptr, ptr %6, align 8
  %154 = load i32, ptr %12, align 4
  %155 = add nsw i32 %154, 1
  %156 = sext i32 %155 to i64
  %157 = getelementptr inbounds %struct.Vector2, ptr %153, i64 %156
  %158 = getelementptr inbounds nuw %struct.Vector2, ptr %157, i32 0, i32 0
  %159 = load float, ptr %158, align 4
  %160 = getelementptr inbounds nuw %struct.Vector2, ptr %14, i32 0, i32 0
  %161 = load float, ptr %160, align 4
  %162 = fadd float %159, %161
  store float %162, ptr %152, align 8
  %163 = getelementptr inbounds nuw %struct.Vector2, ptr %151, i32 0, i32 1
  %164 = load ptr, ptr %6, align 8
  %165 = load i32, ptr %12, align 4
  %166 = add nsw i32 %165, 1
  %167 = sext i32 %166 to i64
  %168 = getelementptr inbounds %struct.Vector2, ptr %164, i64 %167
  %169 = getelementptr inbounds nuw %struct.Vector2, ptr %168, i32 0, i32 1
  %170 = load float, ptr %169, align 4
  %171 = getelementptr inbounds nuw %struct.Vector2, ptr %14, i32 0, i32 1
  %172 = load float, ptr %171, align 4
  %173 = fadd float %170, %172
  store float %173, ptr %163, align 4
  %174 = getelementptr inbounds [4 x %struct.Vector2], ptr %15, i64 0, i64 0
  %175 = load i32, ptr %5, align 1
  call void @DrawTriangleStrip(ptr noundef %174, i32 noundef 4, i32 %175)
  call void @llvm.lifetime.end.p0(i64 32, ptr %15) #8
  call void @llvm.lifetime.end.p0(i64 8, ptr %14) #8
  br label %176

176:                                              ; preds = %75
  %177 = load i32, ptr %12, align 4
  %178 = add nsw i32 %177, 1
  store i32 %178, ptr %12, align 4
  br label %20

179:                                              ; preds = %25
  call void @llvm.lifetime.end.p0(i64 4, ptr %11) #8
  call void @llvm.lifetime.end.p0(i64 4, ptr %10) #8
  call void @llvm.lifetime.end.p0(i64 8, ptr %9) #8
  br label %180

180:                                              ; preds = %179, %18
  ret void
}