; Function Attrs: nounwind uwtable
define void @DrawSplineLinear(ptr noundef readonly captures(none) %0, i32 noundef %1, float noundef %2, i32 %3) local_unnamed_addr #7 {
  %5 = alloca [4 x %struct.Vector2], align 16
  %6 = icmp slt i32 %1, 2
  br i1 %6, label %.loopexit, label %.lr.ph

.lr.ph:                                           ; preds = %4
  %7 = add nsw i32 %1, -1
  %8 = getelementptr inbounds nuw i8, ptr %5, i64 4
  %9 = getelementptr inbounds nuw i8, ptr %5, i64 8
  %10 = getelementptr inbounds nuw i8, ptr %5, i64 12
  %11 = getelementptr inbounds nuw i8, ptr %5, i64 16
  %12 = getelementptr inbounds nuw i8, ptr %5, i64 20
  %13 = getelementptr inbounds nuw i8, ptr %5, i64 24
  %14 = getelementptr inbounds nuw i8, ptr %5, i64 28
  %wide.trip.count = zext nneg i32 %7 to i64
  br label %15

15:                                               ; preds = %.lr.ph, %15
  %indvars.iv = phi i64 [ 0, %.lr.ph ], [ %indvars.iv.next, %15 ]
  %.050 = phi float [ 0.000000e+00, %.lr.ph ], [ %.1, %15 ]
  %indvars.iv.next = add nuw nsw i64 %indvars.iv, 1
  %16 = getelementptr inbounds nuw %struct.Vector2, ptr %0, i64 %indvars.iv.next
  %17 = load float, ptr %16, align 4
  %18 = getelementptr inbounds nuw %struct.Vector2, ptr %0, i64 %indvars.iv
  %19 = load float, ptr %18, align 4
  %20 = fsub float %17, %19
  %21 = getelementptr inbounds nuw i8, ptr %16, i64 4
  %22 = load float, ptr %21, align 4
  %23 = getelementptr inbounds nuw i8, ptr %18, i64 4
  %24 = load float, ptr %23, align 4
  %25 = fsub float %22, %24
  %26 = fmul float %25, %25
  %27 = tail call float @llvm.fmuladd.f32(float %20, float %20, float %26)
  %sqrt = tail call float @llvm.sqrt.f32(float %27)
  %28 = fcmp ogt float %27, 0.000000e+00
  %29 = fmul float %sqrt, 2.000000e+00
  %30 = fdiv float %2, %29
  %.1 = select i1 %28, float %30, float %.050
  %31 = fneg float %.1
  %32 = fmul float %25, %31
  %33 = fmul float %20, %.1
  call void @llvm.lifetime.start.p0(i64 32, ptr nonnull %5) #16
  %34 = fsub float %19, %32
  store float %34, ptr %5, align 16
  %35 = fsub float %24, %33
  store float %35, ptr %8, align 4
  %36 = fadd float %19, %32
  store float %36, ptr %9, align 8
  %37 = fadd float %24, %33
  store float %37, ptr %10, align 4
  %38 = fsub float %17, %32
  store float %38, ptr %11, align 16
  %39 = fsub float %22, %33
  store float %39, ptr %12, align 4
  %40 = fadd float %17, %32
  store float %40, ptr %13, align 8
  %41 = fadd float %33, %22
  store float %41, ptr %14, align 4
  call void @DrawTriangleStrip(ptr noundef nonnull %5, i32 noundef 4, i32 %3)
  call void @llvm.lifetime.end.p0(i64 32, ptr nonnull %5) #16
  %exitcond.not = icmp eq i64 %indvars.iv.next, %wide.trip.count
  br i1 %exitcond.not, label %.loopexit, label %15

.loopexit:                                        ; preds = %15, %4
  ret void
}